target datalayout = "e-m:e-p270:32:32-p271:32:32-p272:64:64-i64:64-i128:128-f80:128-n8:16:32:64-S128"
target triple = "x86_64-pc-linux-gnu"

%struct.buf_mem_st = type { i64, ptr, i64 }

; Function Attrs: nounwind uwtable
define hidden ptr @ASN1_item_d2i_bio(ptr noundef %0, ptr noundef %1, ptr noundef %2) #0 {
  %4 = alloca ptr, align 8
  %5 = alloca ptr, align 8
  %6 = alloca ptr, align 8
  %7 = alloca ptr, align 8
  %8 = alloca ptr, align 8
  %9 = alloca ptr, align 8
  %10 = alloca i32, align 4
  store ptr %0, ptr %4, align 8, !tbaa !35
  store ptr %1, ptr %5, align 8, !tbaa !12
  store ptr %2, ptr %6, align 8, !tbaa !6
  call void @llvm.lifetime.start.p0(i64 8, ptr %7) #3
  store ptr null, ptr %7, align 8, !tbaa !14
  call void @llvm.lifetime.start.p0(i64 8, ptr %8) #3
  call void @llvm.lifetime.start.p0(i64 8, ptr %9) #3
  store ptr null, ptr %9, align 8, !tbaa !6
  call void @llvm.lifetime.start.p0(i64 4, ptr %10) #3
  %11 = load ptr, ptr %5, align 8, !tbaa !12
  %12 = call i32 @asn1_d2i_read_bio(ptr noundef %11, ptr noundef %7)
  store i32 %12, ptr %10, align 4, !tbaa !16
  %13 = load i32, ptr %10, align 4, !tbaa !16
  %14 = icmp slt i32 %13, 0
  br i1 %14, label %15, label %16

15:                                               ; preds = %3
  br label %25

16:                                               ; preds = %3
  %17 = load ptr, ptr %7, align 8, !tbaa !14
  %18 = getelementptr inbounds nuw %struct.buf_mem_st, ptr %17, i32 0, i32 1
  %19 = load ptr, ptr %18, align 8, !tbaa !18
  store ptr %19, ptr %8, align 8, !tbaa !22
  %20 = load ptr, ptr %6, align 8, !tbaa !6
  %21 = load i32, ptr %10, align 4, !tbaa !16
  %22 = sext i32 %21 to i64
  %23 = load ptr, ptr %4, align 8, !tbaa !35
  %24 = call ptr @ASN1_item_d2i(ptr noundef %20, ptr noundef %8, i64 noundef %22, ptr noundef %23)
  store ptr %24, ptr %9, align 8, !tbaa !6
  br label %25

25:                                               ; preds = %16, %15
  %26 = load ptr, ptr %7, align 8, !tbaa !14
  %27 = icmp ne ptr %26, null
  br i1 %27, label %28, label %30

28:                                               ; preds = %25
  %29 = load ptr, ptr %7, align 8, !tbaa !14
  call void @BUF_MEM_free(ptr noundef %29)
  br label %30

30:                                               ; preds = %28, %25
  %31 = load ptr, ptr %9, align 8, !tbaa !6
  call void @llvm.lifetime.end.p0(i64 4, ptr %10) #3
  call void @llvm.lifetime.end.p0(i64 8, ptr %9) #3
  call void @llvm.lifetime.end.p0(i64 8, ptr %8) #3
  call void @llvm.lifetime.end.p0(i64 8, ptr %7) #3
  ret ptr %31
}