; Function Attrs: nounwind uwtable
define hidden ptr @ASN1_item_d2i_bio(ptr noundef %0, ptr noundef %1, ptr noundef %2) local_unnamed_addr #0 {
  %4 = alloca ptr, align 8
  %5 = alloca ptr, align 8
  call void @llvm.lifetime.start.p0(i64 8, ptr nonnull %4) #4
  store ptr null, ptr %4, align 8, !tbaa !6
  call void @llvm.lifetime.start.p0(i64 8, ptr nonnull %5) #4
  %6 = call fastcc i32 @asn1_d2i_read_bio(ptr noundef %1, ptr noundef %4)
  %7 = icmp slt i32 %6, 0
  %.pre = load ptr, ptr %4, align 8, !tbaa !6
  br i1 %7, label %12, label %.thread

.thread:                                          ; preds = %3
  %8 = getelementptr inbounds nuw i8, ptr %.pre, i64 8
  %9 = load ptr, ptr %8, align 8, !tbaa !11
  store ptr %9, ptr %5, align 8, !tbaa !15
  %10 = zext nneg i32 %6 to i64
  %11 = call ptr @ASN1_item_d2i(ptr noundef %2, ptr noundef nonnull %5, i64 noundef %10, ptr noundef %0) #4
  br label %13

12:                                               ; preds = %3
  %.not = icmp eq ptr %.pre, null
  br i1 %.not, label %14, label %13

13:                                               ; preds = %.thread, %12
  %.09 = phi ptr [ %11, %.thread ], [ null, %12 ]
  call void @BUF_MEM_free(ptr noundef nonnull %.pre) #4
  br label %14

14:                                               ; preds = %13, %12
  %.010 = phi ptr [ %.09, %13 ], [ null, %12 ]
  call void @llvm.lifetime.end.p0(i64 8, ptr nonnull %5) #4
  call void @llvm.lifetime.end.p0(i64 8, ptr nonnull %4) #4
  ret ptr %.010
}